target datalayout = "e-m:e-p270:32:32-p271:32:32-p272:64:64-i64:64-i128:128-f80:128-n8:16:32:64-S128"
target triple = "x86_64-pc-linux-gnu"

%struct.evp_pkey_ctx_st = type { i32, ptr, ptr, ptr, ptr, %union.anon, %struct.anon.5, ptr, ptr, ptr, i32, i32, ptr, ptr, ptr, ptr, ptr, i8, ptr }
%union.anon = type { %struct.anon.1 }
%struct.anon.1 = type { ptr, ptr }
%struct.anon.5 = type { ptr, ptr, i64, i8 }

@.str.2 = private unnamed_addr constant [34 x i8] c"../openssl/crypto/dsa/dsa_ameth.c\00", align 1
@__func__.dsa_pkey_import_from = private unnamed_addr constant [21 x i8] c"dsa_pkey_import_from\00", align 1

; Function Attrs: nounwind uwtable
define internal i32 @dsa_pkey_import_from(ptr noundef %0, ptr noundef %1) #0 {
  %3 = alloca i32, align 4
  %4 = alloca ptr, align 8
  %5 = alloca ptr, align 8
  %6 = alloca ptr, align 8
  %7 = alloca ptr, align 8
  %8 = alloca ptr, align 8
  %9 = alloca i32, align 4
  store ptr %0, ptr %4, align 8, !tbaa !67
  store ptr %1, ptr %5, align 8, !tbaa !18
  call void @llvm.lifetime.start.p0(i64 8, ptr %6) #3
  %10 = load ptr, ptr %5, align 8, !tbaa !18
  store ptr %10, ptr %6, align 8, !tbaa !69
  call void @llvm.lifetime.start.p0(i64 8, ptr %7) #3
  %11 = load ptr, ptr %6, align 8, !tbaa !69
  %12 = call ptr @EVP_PKEY_CTX_get0_pkey(ptr noundef %11)
  store ptr %12, ptr %7, align 8, !tbaa !3
  call void @llvm.lifetime.start.p0(i64 8, ptr %8) #3
  %13 = load ptr, ptr %6, align 8, !tbaa !69
  %14 = getelementptr inbounds nuw %struct.evp_pkey_ctx_st, ptr %13, i32 0, i32 1
  %15 = load ptr, ptr %14, align 8, !tbaa !71
  %16 = call ptr @ossl_dsa_new(ptr noundef %15)
  store ptr %16, ptr %8, align 8, !tbaa !12
  %17 = load ptr, ptr %8, align 8, !tbaa !12
  %18 = icmp eq ptr %17, null
  br i1 %18, label %19, label %20

19:                                               ; preds = %2
  call void @ERR_new()
  call void @ERR_set_debug(ptr noundef @.str.2, i32 noundef 486, ptr noundef @__func__.dsa_pkey_import_from)
  call void (i32, i32, ptr, ...) @ERR_set_error(i32 noundef 10, i32 noundef 524298, ptr noundef null)
  store i32 0, ptr %3, align 4
  store i32 1, ptr %9, align 4
  br label %38

20:                                               ; preds = %2
  %21 = load ptr, ptr %8, align 8, !tbaa !12
  %22 = load ptr, ptr %4, align 8, !tbaa !67
  %23 = call i32 @ossl_dsa_ffc_params_fromdata(ptr noundef %21, ptr noundef %22)
  %24 = icmp ne i32 %23, 0
  br i1 %24, label %25, label %35

25:                                               ; preds = %20
  %26 = load ptr, ptr %8, align 8, !tbaa !12
  %27 = load ptr, ptr %4, align 8, !tbaa !67
  %28 = call i32 @ossl_dsa_key_fromdata(ptr noundef %26, ptr noundef %27, i32 noundef 1)
  %29 = icmp ne i32 %28, 0
  br i1 %29, label %30, label %35

30:                                               ; preds = %25
  %31 = load ptr, ptr %7, align 8, !tbaa !3
  %32 = load ptr, ptr %8, align 8, !tbaa !12
  %33 = call i32 @EVP_PKEY_assign(ptr noundef %31, i32 noundef 116, ptr noundef %32)
  %34 = icmp ne i32 %33, 0
  br i1 %34, label %37, label %35

35:                                               ; preds = %30, %25, %20
  %36 = load ptr, ptr %8, align 8, !tbaa !12
  call void @DSA_free(ptr noundef %36)
  store i32 0, ptr %3, align 4
  store i32 1, ptr %9, align 4
  br label %38

37:                                               ; preds = %30
  store i32 1, ptr %3, align 4
  store i32 1, ptr %9, align 4
  br label %38

38:                                               ; preds = %37, %35, %19
  call void @llvm.lifetime.end.p0(i64 8, ptr %8) #3
  call void @llvm.lifetime.end.p0(i64 8, ptr %7) #3
  call void @llvm.lifetime.end.p0(i64 8, ptr %6) #3
  %39 = load i32, ptr %3, align 4
  ret i32 %39
}