; Function Attrs: nounwind uwtable
define internal range(i32 0, 2) i32 @dsa_pkey_import_from(ptr noundef %0, ptr noundef %1) #0 {
  %3 = tail call ptr @EVP_PKEY_CTX_get0_pkey(ptr noundef %1) #5
  %4 = getelementptr inbounds nuw i8, ptr %1, i64 8
  %5 = load ptr, ptr %4, align 8, !tbaa !43
  %6 = tail call ptr @ossl_dsa_new(ptr noundef %5) #5
  %7 = icmp eq ptr %6, null
  br i1 %7, label %8, label %9

8:                                                ; preds = %2
  tail call void @ERR_new() #5
  tail call void @ERR_set_debug(ptr noundef nonnull @.str.2, i32 noundef 486, ptr noundef nonnull @__func__.dsa_pkey_import_from) #5
  tail call void (i32, i32, ptr, ...) @ERR_set_error(i32 noundef 10, i32 noundef 524298, ptr noundef null) #5
  br label %16

9:                                                ; preds = %2
  %10 = tail call i32 @ossl_dsa_ffc_params_fromdata(ptr noundef nonnull %6, ptr noundef %0) #5
  %.not = icmp eq i32 %10, 0
  br i1 %.not, label %15, label %11

11:                                               ; preds = %9
  %12 = tail call i32 @ossl_dsa_key_fromdata(ptr noundef nonnull %6, ptr noundef %0, i32 noundef 1) #5
  %.not12 = icmp eq i32 %12, 0
  br i1 %.not12, label %15, label %13

13:                                               ; preds = %11
  %14 = tail call i32 @EVP_PKEY_assign(ptr noundef %3, i32 noundef 116, ptr noundef nonnull %6) #5
  %.not13 = icmp eq i32 %14, 0
  br i1 %.not13, label %15, label %16

15:                                               ; preds = %13, %11, %9
  tail call void @DSA_free(ptr noundef nonnull %6) #5
  br label %16

16:                                               ; preds = %13, %15, %8
  %.0 = phi i32 [ 0, %8 ], [ 0, %15 ], [ 1, %13 ]
  ret i32 %.0
}